; Function Attrs: mustprogress uwtable
define void @_ZN13sentencepiece20SentencePieceTrainer5TrainESt17basic_string_viewIcSt11char_traitsIcEERKSt6vectorINSt7__cxx1112basic_stringIcS3_SaIcEEESaIS9_EEPS9_(ptr dead_on_unwind noalias writable sret(%"class.sentencepiece::util::Status") align 8 %0, i64 %1, ptr %2, ptr noundef nonnull readonly align 8 captures(none) dereferenceable(24) %3, ptr noundef %4) local_unnamed_addr #3 align 2 personality ptr @__gxx_personality_v0 {
  %6 = alloca %"class.sentencepiece::(anonymous namespace)::VectorSentenceIterator", align 8
  call void @llvm.lifetime.start.p0(i64 24, ptr nonnull %6) #26
  store ptr getelementptr inbounds nuw inrange(-16, 48) (i8, ptr @_ZTVN13sentencepiece12_GLOBAL__N_122VectorSentenceIteratorE, i64 16), ptr %6, align 8, !tbaa !20
  %7 = getelementptr inbounds nuw i8, ptr %6, i64 8
  %8 = load ptr, ptr %3, align 8, !tbaa !25
  store ptr %8, ptr %7, align 8
  %9 = getelementptr inbounds nuw i8, ptr %6, i64 16
  %10 = getelementptr inbounds nuw i8, ptr %3, i64 8
  %11 = load ptr, ptr %10, align 8, !tbaa !25
  store ptr %11, ptr %9, align 8
  call void @_ZN13sentencepiece20SentencePieceTrainer5TrainESt17basic_string_viewIcSt11char_traitsIcEEPNS_16SentenceIteratorEPNSt7__cxx1112basic_stringIcS3_SaIcEEE(ptr dead_on_unwind writable sret(%"class.sentencepiece::util::Status") align 8 %0, i64 %1, ptr %2, ptr noundef nonnull %6, ptr noundef %4)
  call void @llvm.lifetime.end.p0(i64 24, ptr nonnull %6) #26
  ret void
}